	.cpu cortex-m4
	.eabi_attribute 27, 1
	.eabi_attribute 28, 1
	.eabi_attribute 20, 1
	.eabi_attribute 21, 1
	.eabi_attribute 23, 3
	.eabi_attribute 24, 1
	.eabi_attribute 25, 1
	.eabi_attribute 26, 1
	.eabi_attribute 30, 6
	.eabi_attribute 34, 1
	.eabi_attribute 18, 4
	.file	"misc.c"
	.text
.Ltext0:
	.cfi_sections	.debug_frame
	.global	g5
	.data
	.align	2
	.type	g5, %object
	.size	g5, 40
g5:
	.word	0
	.word	1
	.word	2
	.word	3
	.word	4
	.word	5
	.word	6
	.word	7
	.word	8
	.word	9
	.section	.rodata
	.align	2
.LC0:
	.ascii	"Hello World!\012\000"
	.text
	.align	1
	.global	func
	.syntax unified
	.thumb
	.thumb_func
	.fpu fpv4-sp-d16
	.type	func, %function
func:
.LFB0:
	.file 1 "misc.c"
	.loc 1 27 0
	.cfi_startproc
	@ args = 0, pretend = 0, frame = 16
	@ frame_needed = 1, uses_anonymous_args = 0
	@ link register save eliminated.
	push	{r7}
	.cfi_def_cfa_offset 4
	.cfi_offset 7, -4
	sub	sp, sp, #20
	.cfi_def_cfa_offset 24
	add	r7, sp, #0
	.cfi_def_cfa_register 7
	str	r0, [r7, #4]
	.loc 1 29 0
	movs	r3, #0
	str	r3, [r7, #12]
	.loc 1 30 0
	ldr	r3, .L5
	str	r3, [r7, #8]
	.loc 1 32 0
	ldr	r3, .L5+4
	ldr	r3, [r3]
	adds	r3, r3, #1
	ldr	r2, .L5+4
	str	r3, [r2]
	.loc 1 33 0
	ldr	r3, .L5+4
	ldr	r3, [r3]
	lsls	r3, r3, #2
	ldr	r2, .L5+8
	add	r3, r3, r2
	ldr	r2, [r7, #12]
	str	r2, [r3]
	.loc 1 35 0
	movs	r3, #0
	str	r3, [r7, #12]
	b	.L2
.L3:
	.loc 1 37 0 discriminator 3
	ldr	r2, [r7, #8]
	ldr	r3, [r7, #12]
	add	r3, r3, r2
	ldrb	r3, [r3]
	uxtb	r3, r3
	mov	r1, r3
	ldr	r2, .L5+8
	ldr	r3, [r7, #12]
	str	r1, [r2, r3, lsl #2]
	.loc 1 38 0 discriminator 3
	ldr	r3, .L5+4
	ldr	r3, [r3]
	adds	r3, r3, #1
	ldr	r2, .L5+4
	str	r3, [r2]
	.loc 1 35 0 discriminator 3
	ldr	r3, [r7, #12]
	adds	r3, r3, #1
	str	r3, [r7, #12]
.L2:
	.loc 1 35 0 is_stmt 0 discriminator 1
	ldr	r3, [r7, #12]
	cmp	r3, #5
	bls	.L3
	.loc 1 41 0 is_stmt 1
	ldr	r3, .L5+4
	ldr	r3, [r3]
	.loc 1 42 0
	mov	r0, r3
	adds	r7, r7, #20
	.cfi_def_cfa_offset 4
	mov	sp, r7
	.cfi_def_cfa_register 13
	@ sp needed
	ldr	r7, [sp], #4
	.cfi_restore 7
	.cfi_def_cfa_offset 0
	bx	lr
.L6:
	.align	2
.L5:
	.word	.LC0
	.word	f2.5109
	.word	g5
	.cfi_endproc
.LFE0:
	.size	func, .-func
	.bss
	.align	2
f2.5109:
	.space	4
	.size	f2.5109, 4
	.text
.Letext0: